target datalayout = "e-m:e-p270:32:32-p271:32:32-p272:64:64-i64:64-i128:128-f80:128-n8:16:32:64-S128"
target triple = "x86_64-pc-linux-gnu"

@.str.5 = private unnamed_addr constant [3 x i8] c"\\\\\00", align 1
@.str.6 = private unnamed_addr constant [3 x i8] c"\\\22\00", align 1
@.str.7 = private unnamed_addr constant [3 x i8] c"\\b\00", align 1
@.str.8 = private unnamed_addr constant [3 x i8] c"\\f\00", align 1
@.str.9 = private unnamed_addr constant [3 x i8] c"\\n\00", align 1
@.str.10 = private unnamed_addr constant [3 x i8] c"\\r\00", align 1
@.str.11 = private unnamed_addr constant [3 x i8] c"\\t\00", align 1
@.str.12 = private unnamed_addr constant [7 x i8] c"\\u%04x\00", align 1
@.str.13 = private unnamed_addr constant [7 x i8] c"\\u2028\00", align 1
@.str.14 = private unnamed_addr constant [7 x i8] c"\\u2029\00", align 1

; Function Attrs: mustprogress uwtable
define internal void @_ZN24json11_internal_lightgbmL4dumpERKNSt7__cxx1112basic_stringIcSt11char_traitsIcESaIcEEEPS5_(ptr noundef nonnull align 8 dereferenceable(32) %0, ptr noundef %1) #1 {
  %3 = alloca ptr, align 8
  %4 = alloca ptr, align 8
  %5 = alloca i64, align 8
  %6 = alloca i8, align 1
  %7 = alloca [8 x i8], align 1
  store ptr %0, ptr %3, align 8
  store ptr %1, ptr %4, align 8
  %8 = load ptr, ptr %4, align 8
  %9 = call noundef nonnull align 8 dereferenceable(32) ptr @_ZNSt7__cxx1112basic_stringIcSt11char_traitsIcESaIcEEpLEc(ptr noundef nonnull align 8 dereferenceable(32) %8, i8 noundef signext 34)
  store i64 0, ptr %5, align 8
  br label %10

10:                                               ; preds = %144, %2
  %11 = load i64, ptr %5, align 8
  %12 = load ptr, ptr %3, align 8
  %13 = call noundef i64 @_ZNKSt7__cxx1112basic_stringIcSt11char_traitsIcESaIcEE6lengthEv(ptr noundef nonnull align 8 dereferenceable(32) %12) #5
  %14 = icmp ult i64 %11, %13
  br i1 %14, label %15, label %147

15:                                               ; preds = %10
  %16 = load ptr, ptr %3, align 8
  %17 = load i64, ptr %5, align 8
  %18 = call noundef nonnull align 1 dereferenceable(1) ptr @_ZNKSt7__cxx1112basic_stringIcSt11char_traitsIcESaIcEEixEm(ptr noundef nonnull align 8 dereferenceable(32) %16, i64 noundef %17) #5
  %19 = load i8, ptr %18, align 1
  store i8 %19, ptr %6, align 1
  %20 = load i8, ptr %6, align 1
  %21 = sext i8 %20 to i32
  %22 = icmp eq i32 %21, 92
  br i1 %22, label %23, label %26

23:                                               ; preds = %15
  %24 = load ptr, ptr %4, align 8
  %25 = call noundef nonnull align 8 dereferenceable(32) ptr @_ZNSt7__cxx1112basic_stringIcSt11char_traitsIcESaIcEEpLEPKc(ptr noundef nonnull align 8 dereferenceable(32) %24, ptr noundef @.str.5)
  br label %143

26:                                               ; preds = %15
  %27 = load i8, ptr %6, align 1
  %28 = sext i8 %27 to i32
  %29 = icmp eq i32 %28, 34
  br i1 %29, label %30, label %33

30:                                               ; preds = %26
  %31 = load ptr, ptr %4, align 8
  %32 = call noundef nonnull align 8 dereferenceable(32) ptr @_ZNSt7__cxx1112basic_stringIcSt11char_traitsIcESaIcEEpLEPKc(ptr noundef nonnull align 8 dereferenceable(32) %31, ptr noundef @.str.6)
  br label %142

33:                                               ; preds = %26
  %34 = load i8, ptr %6, align 1
  %35 = sext i8 %34 to i32
  %36 = icmp eq i32 %35, 8
  br i1 %36, label %37, label %40

37:                                               ; preds = %33
  %38 = load ptr, ptr %4, align 8
  %39 = call noundef nonnull align 8 dereferenceable(32) ptr @_ZNSt7__cxx1112basic_stringIcSt11char_traitsIcESaIcEEpLEPKc(ptr noundef nonnull align 8 dereferenceable(32) %38, ptr noundef @.str.7)
  br label %141

40:                                               ; preds = %33
  %41 = load i8, ptr %6, align 1
  %42 = sext i8 %41 to i32
  %43 = icmp eq i32 %42, 12
  br i1 %43, label %44, label %47

44:                                               ; preds = %40
  %45 = load ptr, ptr %4, align 8
  %46 = call noundef nonnull align 8 dereferenceable(32) ptr @_ZNSt7__cxx1112basic_stringIcSt11char_traitsIcESaIcEEpLEPKc(ptr noundef nonnull align 8 dereferenceable(32) %45, ptr noundef @.str.8)
  br label %140

47:                                               ; preds = %40
  %48 = load i8, ptr %6, align 1
  %49 = sext i8 %48 to i32
  %50 = icmp eq i32 %49, 10
  br i1 %50, label %51, label %54

51:                                               ; preds = %47
  %52 = load ptr, ptr %4, align 8
  %53 = call noundef nonnull align 8 dereferenceable(32) ptr @_ZNSt7__cxx1112basic_stringIcSt11char_traitsIcESaIcEEpLEPKc(ptr noundef nonnull align 8 dereferenceable(32) %52, ptr noundef @.str.9)
  br label %139

54:                                               ; preds = %47
  %55 = load i8, ptr %6, align 1
  %56 = sext i8 %55 to i32
  %57 = icmp eq i32 %56, 13
  br i1 %57, label %58, label %61

58:                                               ; preds = %54
  %59 = load ptr, ptr %4, align 8
  %60 = call noundef nonnull align 8 dereferenceable(32) ptr @_ZNSt7__cxx1112basic_stringIcSt11char_traitsIcESaIcEEpLEPKc(ptr noundef nonnull align 8 dereferenceable(32) %59, ptr noundef @.str.10)
  br label %138

61:                                               ; preds = %54
  %62 = load i8, ptr %6, align 1
  %63 = sext i8 %62 to i32
  %64 = icmp eq i32 %63, 9
  br i1 %64, label %65, label %68

65:                                               ; preds = %61
  %66 = load ptr, ptr %4, align 8
  %67 = call noundef nonnull align 8 dereferenceable(32) ptr @_ZNSt7__cxx1112basic_stringIcSt11char_traitsIcESaIcEEpLEPKc(ptr noundef nonnull align 8 dereferenceable(32) %66, ptr noundef @.str.11)
  br label %137

68:                                               ; preds = %61
  %69 = load i8, ptr %6, align 1
  %70 = zext i8 %69 to i32
  %71 = icmp sle i32 %70, 31
  br i1 %71, label %72, label %80

72:                                               ; preds = %68
  %73 = getelementptr inbounds [8 x i8], ptr %7, i64 0, i64 0
  %74 = load i8, ptr %6, align 1
  %75 = sext i8 %74 to i32
  %76 = call i32 (ptr, i64, ptr, ...) @snprintf(ptr noundef %73, i64 noundef 8, ptr noundef @.str.12, i32 noundef %75) #5
  %77 = getelementptr inbounds [8 x i8], ptr %7, i64 0, i64 0
  %78 = load ptr, ptr %4, align 8
  %79 = call noundef nonnull align 8 dereferenceable(32) ptr @_ZNSt7__cxx1112basic_stringIcSt11char_traitsIcESaIcEEpLEPKc(ptr noundef nonnull align 8 dereferenceable(32) %78, ptr noundef %77)
  br label %136

80:                                               ; preds = %68
  %81 = load i8, ptr %6, align 1
  %82 = zext i8 %81 to i32
  %83 = icmp eq i32 %82, 226
  br i1 %83, label %84, label %105

84:                                               ; preds = %80
  %85 = load ptr, ptr %3, align 8
  %86 = load i64, ptr %5, align 8
  %87 = add i64 %86, 1
  %88 = call noundef nonnull align 1 dereferenceable(1) ptr @_ZNKSt7__cxx1112basic_stringIcSt11char_traitsIcESaIcEEixEm(ptr noundef nonnull align 8 dereferenceable(32) %85, i64 noundef %87) #5
  %89 = load i8, ptr %88, align 1
  %90 = zext i8 %89 to i32
  %91 = icmp eq i32 %90, 128
  br i1 %91, label %92, label %105

92:                                               ; preds = %84
  %93 = load ptr, ptr %3, align 8
  %94 = load i64, ptr %5, align 8
  %95 = add i64 %94, 2
  %96 = call noundef nonnull align 1 dereferenceable(1) ptr @_ZNKSt7__cxx1112basic_stringIcSt11char_traitsIcESaIcEEixEm(ptr noundef nonnull align 8 dereferenceable(32) %93, i64 noundef %95) #5
  %97 = load i8, ptr %96, align 1
  %98 = zext i8 %97 to i32
  %99 = icmp eq i32 %98, 168
  br i1 %99, label %100, label %105

100:                                              ; preds = %92
  %101 = load ptr, ptr %4, align 8
  %102 = call noundef nonnull align 8 dereferenceable(32) ptr @_ZNSt7__cxx1112basic_stringIcSt11char_traitsIcESaIcEEpLEPKc(ptr noundef nonnull align 8 dereferenceable(32) %101, ptr noundef @.str.13)
  %103 = load i64, ptr %5, align 8
  %104 = add i64 %103, 2
  store i64 %104, ptr %5, align 8
  br label %135

105:                                              ; preds = %92, %84, %80
  %106 = load i8, ptr %6, align 1
  %107 = zext i8 %106 to i32
  %108 = icmp eq i32 %107, 226
  br i1 %108, label %109, label %130

109:                                              ; preds = %105
  %110 = load ptr, ptr %3, align 8
  %111 = load i64, ptr %5, align 8
  %112 = add i64 %111, 1
  %113 = call noundef nonnull align 1 dereferenceable(1) ptr @_ZNKSt7__cxx1112basic_stringIcSt11char_traitsIcESaIcEEixEm(ptr noundef nonnull align 8 dereferenceable(32) %110, i64 noundef %112) #5
  %114 = load i8, ptr %113, align 1
  %115 = zext i8 %114 to i32
  %116 = icmp eq i32 %115, 128
  br i1 %116, label %117, label %130

117:                                              ; preds = %109
  %118 = load ptr, ptr %3, align 8
  %119 = load i64, ptr %5, align 8
  %120 = add i64 %119, 2
  %121 = call noundef nonnull align 1 dereferenceable(1) ptr @_ZNKSt7__cxx1112basic_stringIcSt11char_traitsIcESaIcEEixEm(ptr noundef nonnull align 8 dereferenceable(32) %118, i64 noundef %120) #5
  %122 = load i8, ptr %121, align 1
  %123 = zext i8 %122 to i32
  %124 = icmp eq i32 %123, 169
  br i1 %124, label %125, label %130

125:                                              ; preds = %117
  %126 = load ptr, ptr %4, align 8
  %127 = call noundef nonnull align 8 dereferenceable(32) ptr @_ZNSt7__cxx1112basic_stringIcSt11char_traitsIcESaIcEEpLEPKc(ptr noundef nonnull align 8 dereferenceable(32) %126, ptr noundef @.str.14)
  %128 = load i64, ptr %5, align 8
  %129 = add i64 %128, 2
  store i64 %129, ptr %5, align 8
  br label %134

130:                                              ; preds = %117, %109, %105
  %131 = load i8, ptr %6, align 1
  %132 = load ptr, ptr %4, align 8
  %133 = call noundef nonnull align 8 dereferenceable(32) ptr @_ZNSt7__cxx1112basic_stringIcSt11char_traitsIcESaIcEEpLEc(ptr noundef nonnull align 8 dereferenceable(32) %132, i8 noundef signext %131)
  br label %134

134:                                              ; preds = %130, %125
  br label %135

135:                                              ; preds = %134, %100
  br label %136

136:                                              ; preds = %135, %72
  br label %137

137:                                              ; preds = %136, %65
  br label %138

138:                                              ; preds = %137, %58
  br label %139

139:                                              ; preds = %138, %51
  br label %140

140:                                              ; preds = %139, %44
  br label %141

141:                                              ; preds = %140, %37
  br label %142

142:                                              ; preds = %141, %30
  br label %143

143:                                              ; preds = %142, %23
  br label %144

144:                                              ; preds = %143
  %145 = load i64, ptr %5, align 8
  %146 = add i64 %145, 1
  store i64 %146, ptr %5, align 8
  br label %10, !llvm.loop !9

147:                                              ; preds = %10
  %148 = load ptr, ptr %4, align 8
  %149 = call noundef nonnull align 8 dereferenceable(32) ptr @_ZNSt7__cxx1112basic_stringIcSt11char_traitsIcESaIcEEpLEc(ptr noundef nonnull align 8 dereferenceable(32) %148, i8 noundef signext 34)
  ret void
}