; Function Attrs: mustprogress uwtable
define internal fastcc void @_ZN24json11_internal_lightgbmL4dumpERKNSt7__cxx1112basic_stringIcSt11char_traitsIcESaIcEEEPS5_(ptr noundef nonnull align 8 dereferenceable(32) %0, ptr noundef nonnull %1) unnamed_addr #1 {
  %3 = alloca [8 x i8], align 1
  %4 = tail call noundef nonnull align 8 dereferenceable(32) ptr @_ZNSt7__cxx1112basic_stringIcSt11char_traitsIcESaIcEEpLEc(ptr noundef nonnull align 8 dereferenceable(32) %1, i8 noundef signext 34)
  %5 = tail call noundef i64 @_ZNKSt7__cxx1112basic_stringIcSt11char_traitsIcESaIcEE6lengthEv(ptr noundef nonnull align 8 dereferenceable(32) %0) #22
  %.not = icmp eq i64 %5, 0
  br i1 %.not, label %._crit_edge, label %.lr.ph

.lr.ph:                                           ; preds = %2, %54
  %.041 = phi i64 [ %55, %54 ], [ 0, %2 ]
  %6 = call noundef nonnull align 1 dereferenceable(1) ptr @_ZNKSt7__cxx1112basic_stringIcSt11char_traitsIcESaIcEEixEm(ptr noundef nonnull align 8 dereferenceable(32) %0, i64 noundef %.041) #22
  %7 = load i8, ptr %6, align 1
  %8 = sext i8 %7 to i32
  switch i8 %7, label %23 [
    i8 92, label %9
    i8 34, label %11
    i8 8, label %13
    i8 12, label %15
    i8 10, label %17
    i8 13, label %19
    i8 9, label %21
  ]

9:                                                ; preds = %.lr.ph
  %10 = call noundef nonnull align 8 dereferenceable(32) ptr @_ZNSt7__cxx1112basic_stringIcSt11char_traitsIcESaIcEEpLEPKc(ptr noundef nonnull align 8 dereferenceable(32) %1, ptr noundef nonnull @.str.5)
  br label %54

11:                                               ; preds = %.lr.ph
  %12 = call noundef nonnull align 8 dereferenceable(32) ptr @_ZNSt7__cxx1112basic_stringIcSt11char_traitsIcESaIcEEpLEPKc(ptr noundef nonnull align 8 dereferenceable(32) %1, ptr noundef nonnull @.str.6)
  br label %54

13:                                               ; preds = %.lr.ph
  %14 = call noundef nonnull align 8 dereferenceable(32) ptr @_ZNSt7__cxx1112basic_stringIcSt11char_traitsIcESaIcEEpLEPKc(ptr noundef nonnull align 8 dereferenceable(32) %1, ptr noundef nonnull @.str.7)
  br label %54

15:                                               ; preds = %.lr.ph
  %16 = call noundef nonnull align 8 dereferenceable(32) ptr @_ZNSt7__cxx1112basic_stringIcSt11char_traitsIcESaIcEEpLEPKc(ptr noundef nonnull align 8 dereferenceable(32) %1, ptr noundef nonnull @.str.8)
  br label %54

17:                                               ; preds = %.lr.ph
  %18 = call noundef nonnull align 8 dereferenceable(32) ptr @_ZNSt7__cxx1112basic_stringIcSt11char_traitsIcESaIcEEpLEPKc(ptr noundef nonnull align 8 dereferenceable(32) %1, ptr noundef nonnull @.str.9)
  br label %54

19:                                               ; preds = %.lr.ph
  %20 = call noundef nonnull align 8 dereferenceable(32) ptr @_ZNSt7__cxx1112basic_stringIcSt11char_traitsIcESaIcEEpLEPKc(ptr noundef nonnull align 8 dereferenceable(32) %1, ptr noundef nonnull @.str.10)
  br label %54

21:                                               ; preds = %.lr.ph
  %22 = call noundef nonnull align 8 dereferenceable(32) ptr @_ZNSt7__cxx1112basic_stringIcSt11char_traitsIcESaIcEEpLEPKc(ptr noundef nonnull align 8 dereferenceable(32) %1, ptr noundef nonnull @.str.11)
  br label %54

23:                                               ; preds = %.lr.ph
  %24 = icmp ult i8 %7, 32
  br i1 %24, label %25, label %28

25:                                               ; preds = %23
  %26 = call i32 (ptr, i64, ptr, ...) @snprintf(ptr noundef nonnull dereferenceable(1) %3, i64 noundef 8, ptr noundef nonnull @.str.12, i32 noundef %8) #22
  %27 = call noundef nonnull align 8 dereferenceable(32) ptr @_ZNSt7__cxx1112basic_stringIcSt11char_traitsIcESaIcEEpLEPKc(ptr noundef nonnull align 8 dereferenceable(32) %1, ptr noundef nonnull %3)
  br label %54

28:                                               ; preds = %23
  %29 = icmp eq i8 %7, -30
  br i1 %29, label %30, label %.critedge

30:                                               ; preds = %28
  %31 = add nuw i64 %.041, 1
  %32 = call noundef nonnull align 1 dereferenceable(1) ptr @_ZNKSt7__cxx1112basic_stringIcSt11char_traitsIcESaIcEEixEm(ptr noundef nonnull align 8 dereferenceable(32) %0, i64 noundef %31) #22
  %33 = load i8, ptr %32, align 1
  %34 = icmp eq i8 %33, -128
  br i1 %34, label %35, label %42

35:                                               ; preds = %30
  %36 = add i64 %.041, 2
  %37 = call noundef nonnull align 1 dereferenceable(1) ptr @_ZNKSt7__cxx1112basic_stringIcSt11char_traitsIcESaIcEEixEm(ptr noundef nonnull align 8 dereferenceable(32) %0, i64 noundef %36) #22
  %38 = load i8, ptr %37, align 1
  %39 = icmp eq i8 %38, -88
  br i1 %39, label %40, label %42

40:                                               ; preds = %35
  %41 = call noundef nonnull align 8 dereferenceable(32) ptr @_ZNSt7__cxx1112basic_stringIcSt11char_traitsIcESaIcEEpLEPKc(ptr noundef nonnull align 8 dereferenceable(32) %1, ptr noundef nonnull @.str.13)
  br label %54

42:                                               ; preds = %30, %35
  %43 = call noundef nonnull align 1 dereferenceable(1) ptr @_ZNKSt7__cxx1112basic_stringIcSt11char_traitsIcESaIcEEixEm(ptr noundef nonnull align 8 dereferenceable(32) %0, i64 noundef %31) #22
  %44 = load i8, ptr %43, align 1
  %45 = icmp eq i8 %44, -128
  br i1 %45, label %46, label %.critedge

46:                                               ; preds = %42
  %47 = add i64 %.041, 2
  %48 = call noundef nonnull align 1 dereferenceable(1) ptr @_ZNKSt7__cxx1112basic_stringIcSt11char_traitsIcESaIcEEixEm(ptr noundef nonnull align 8 dereferenceable(32) %0, i64 noundef %47) #22
  %49 = load i8, ptr %48, align 1
  %50 = icmp eq i8 %49, -87
  br i1 %50, label %51, label %.critedge

51:                                               ; preds = %46
  %52 = call noundef nonnull align 8 dereferenceable(32) ptr @_ZNSt7__cxx1112basic_stringIcSt11char_traitsIcESaIcEEpLEPKc(ptr noundef nonnull align 8 dereferenceable(32) %1, ptr noundef nonnull @.str.14)
  br label %54

.critedge:                                        ; preds = %28, %46, %42
  %53 = call noundef nonnull align 8 dereferenceable(32) ptr @_ZNSt7__cxx1112basic_stringIcSt11char_traitsIcESaIcEEpLEc(ptr noundef nonnull align 8 dereferenceable(32) %1, i8 noundef signext %7)
  br label %54

54:                                               ; preds = %9, %13, %17, %21, %40, %.critedge, %51, %25, %19, %15, %11
  %.1 = phi i64 [ %.041, %9 ], [ %.041, %11 ], [ %.041, %13 ], [ %.041, %15 ], [ %.041, %17 ], [ %.041, %19 ], [ %.041, %21 ], [ %.041, %25 ], [ %36, %40 ], [ %47, %51 ], [ %.041, %.critedge ]
  %55 = add i64 %.1, 1
  %56 = call noundef i64 @_ZNKSt7__cxx1112basic_stringIcSt11char_traitsIcESaIcEE6lengthEv(ptr noundef nonnull align 8 dereferenceable(32) %0) #22
  %57 = icmp ult i64 %55, %56
  br i1 %57, label %.lr.ph, label %._crit_edge, !llvm.loop !31

._crit_edge:                                      ; preds = %54, %2
  %58 = call noundef nonnull align 8 dereferenceable(32) ptr @_ZNSt7__cxx1112basic_stringIcSt11char_traitsIcESaIcEEpLEc(ptr noundef nonnull align 8 dereferenceable(32) %1, i8 noundef signext 34)
  ret void
}